; ModuleID = '38/1646.c'
source_filename = "38/1646.c"
target datalayout = "e-m:e-p270:32:32-p271:32:32-p272:64:64-i64:64-f80:128-n8:16:32:64-S128"
target triple = "x86_64-pc-linux-gnu"

@.str = private unnamed_addr constant [4 x i8] c"%d\0A\00", align 1
@.str.1 = private unnamed_addr constant [5 x i8] c"%lf\0A\00", align 1
@.str.2 = private unnamed_addr constant [7 x i8] c"%.5lf\0A\00", align 1

; Function Attrs: noinline nounwind uwtable
define dso_local i32 @main() #0 {
  %1 = alloca i32, align 4
  %2 = alloca i32, align 4
  %3 = alloca i32, align 4
  %4 = alloca i32, align 4
  %5 = alloca i32, align 4
  %6 = alloca i8*, align 8
  %7 = alloca i64, align 8
  %8 = alloca double, align 8
  %9 = alloca double, align 8
  %10 = alloca double, align 8
  %11 = alloca double, align 8
  store i32 0, i32* %1, align 4
  %12 = call i32 (i8*, ...) @__isoc99_scanf(i8* getelementptr inbounds ([4 x i8], [4 x i8]* @.str, i64 0, i64 0), i32* %2)
  store i32 1, i32* %3, align 4
  br label %13

13:                                               ; preds = %98, %0
  %14 = load i32, i32* %3, align 4
  %15 = load i32, i32* %2, align 4
  %16 = icmp sle i32 %14, %15
  br i1 %16, label %17, label %101

17:                                               ; preds = %13
  %18 = call i32 (i8*, ...) @__isoc99_scanf(i8* getelementptr inbounds ([4 x i8], [4 x i8]* @.str, i64 0, i64 0), i32* %4)
  %19 = load i32, i32* %4, align 4
  %20 = zext i32 %19 to i64
  %21 = call i8* @llvm.stacksave()
  store i8* %21, i8** %6, align 8
  %22 = alloca double, i64 %20, align 16
  store i64 %20, i64* %7, align 8
  store i32 0, i32* %5, align 4
  br label %23

23:                                               ; preds = %32, %17
  %24 = load i32, i32* %5, align 4
  %25 = load i32, i32* %4, align 4
  %26 = icmp slt i32 %24, %25
  br i1 %26, label %27, label %35

27:                                               ; preds = %23
  %28 = load i32, i32* %5, align 4
  %29 = sext i32 %28 to i64
  %30 = getelementptr inbounds double, double* %22, i64 %29
  %31 = call i32 (i8*, ...) @__isoc99_scanf(i8* getelementptr inbounds ([5 x i8], [5 x i8]* @.str.1, i64 0, i64 0), double* %30)
  br label %32

32:                                               ; preds = %27
  %33 = load i32, i32* %5, align 4
  %34 = add nsw i32 %33, 1
  store i32 %34, i32* %5, align 4
  br label %23

35:                                               ; preds = %23
  %36 = getelementptr inbounds double, double* %22, i64 0
  %37 = load double, double* %36, align 16
  store double %37, double* %8, align 8
  store i32 1, i32* %5, align 4
  br label %38

38:                                               ; preds = %49, %35
  %39 = load i32, i32* %5, align 4
  %40 = load i32, i32* %4, align 4
  %41 = icmp slt i32 %39, %40
  br i1 %41, label %42, label %52

42:                                               ; preds = %38
  %43 = load double, double* %8, align 8
  %44 = load i32, i32* %5, align 4
  %45 = sext i32 %44 to i64
  %46 = getelementptr inbounds double, double* %22, i64 %45
  %47 = load double, double* %46, align 8
  %48 = fadd double %43, %47
  store double %48, double* %8, align 8
  br label %49

49:                                               ; preds = %42
  %50 = load i32, i32* %5, align 4
  %51 = add nsw i32 %50, 1
  store i32 %51, i32* %5, align 4
  br label %38

52:                                               ; preds = %38
  %53 = load double, double* %8, align 8
  %54 = load i32, i32* %4, align 4
  %55 = sitofp i32 %54 to double
  %56 = fdiv double %53, %55
  store double %56, double* %9, align 8
  %57 = getelementptr inbounds double, double* %22, i64 0
  %58 = load double, double* %57, align 16
  %59 = load double, double* %9, align 8
  %60 = fsub double %58, %59
  %61 = getelementptr inbounds double, double* %22, i64 0
  %62 = load double, double* %61, align 16
  %63 = load double, double* %9, align 8
  %64 = fsub double %62, %63
  %65 = fmul double %60, %64
  store double %65, double* %10, align 8
  store i32 1, i32* %5, align 4
  br label %66

66:                                               ; preds = %86, %52
  %67 = load i32, i32* %5, align 4
  %68 = load i32, i32* %4, align 4
  %69 = icmp slt i32 %67, %68
  br i1 %69, label %70, label %89

70:                                               ; preds = %66
  %71 = load double, double* %10, align 8
  %72 = load i32, i32* %5, align 4
  %73 = sext i32 %72 to i64
  %74 = getelementptr inbounds double, double* %22, i64 %73
  %75 = load double, double* %74, align 8
  %76 = load double, double* %9, align 8
  %77 = fsub double %75, %76
  %78 = load i32, i32* %5, align 4
  %79 = sext i32 %78 to i64
  %80 = getelementptr inbounds double, double* %22, i64 %79
  %81 = load double, double* %80, align 8
  %82 = load double, double* %9, align 8
  %83 = fsub double %81, %82
  %84 = fmul double %77, %83
  %85 = fadd double %71, %84
  store double %85, double* %10, align 8
  br label %86

86:                                               ; preds = %70
  %87 = load i32, i32* %5, align 4
  %88 = add nsw i32 %87, 1
  store i32 %88, i32* %5, align 4
  br label %66

89:                                               ; preds = %66
  %90 = load double, double* %10, align 8
  %91 = load i32, i32* %4, align 4
  %92 = sitofp i32 %91 to double
  %93 = fdiv double %90, %92
  %94 = call double @sqrt(double %93) #2
  store double %94, double* %11, align 8
  %95 = load double, double* %11, align 8
  %96 = call i32 (i8*, ...) @printf(i8* getelementptr inbounds ([7 x i8], [7 x i8]* @.str.2, i64 0, i64 0), double %95)
  %97 = load i8*, i8** %6, align 8
  call void @llvm.stackrestore(i8* %97)
  br label %98

98:                                               ; preds = %89
  %99 = load i32, i32* %3, align 4
  %100 = add nsw i32 %99, 1
  store i32 %100, i32* %3, align 4
  br label %13

101:                                              ; preds = %13
  ret i32 0
}

declare dso_local i32 @__isoc99_scanf(i8*, ...) #1

; Function Attrs: nounwind
declare i8* @llvm.stacksave() #2

; Function Attrs: nounwind
declare dso_local double @sqrt(double) #3

declare dso_local i32 @printf(i8*, ...) #1

; Function Attrs: nounwind
declare void @llvm.stackrestore(i8*) #2


!llvm.module.flags = !{!0}
!llvm.ident = !{!1}

!0 = !{i32 1, !"wchar_size", i32 4}
!1 = !{!"clang version 10.0.0-4ubuntu1 "}
